Certificate:
    Data:
        Version: 1 (0x0)
        Serial Number: 4098 (0x1002)
    Signature Algorithm: sha512WithRSAEncryption
        Issuer: C=IN, ST=Goa, L=BITSGoa, O=autolab.bits-goa.ac.in, OU=CSIS, CN=Autolab/emailAddress=tsrkp@goa.bits-pilani.ac.in
        Validity
            Not Before: May 24 19:09:58 2017 GMT
            Not After : May 24 19:09:58 2018 GMT
        Subject: C=IN, ST=Goa, O=autolab.bits-goa.ac.in, OU=CSIS, CN=en1.autolab.bits-goa.ac.in
        Subject Public Key Info:
            Public Key Algorithm: rsaEncryption
                Public-Key: (2048 bit)
                Modulus:
                    00:cf:75:f7:9a:46:aa:4b:c3:65:a4:a2:bd:d3:d0:
                    c8:bd:05:9a:05:ed:3a:94:69:7d:b3:e3:0c:21:8b:
                    3d:a8:96:db:c6:91:8d:01:c9:71:8b:f5:62:23:77:
                    dd:ef:33:b6:6f:33:f5:f9:2a:8c:84:e3:12:58:93:
                    cd:ec:1e:16:5a:3a:23:e1:f0:7f:85:f8:98:d9:33:
                    67:0c:22:86:dd:14:b8:cd:cc:68:02:bd:c0:e2:3d:
                    31:a5:55:ba:34:e6:d6:24:48:70:b8:c3:60:77:a4:
                    11:dc:c9:74:39:f5:5c:26:40:d4:49:69:9d:b1:eb:
                    4d:b5:87:77:e3:23:90:48:eb:f0:fc:a0:c3:74:11:
                    07:9e:03:f7:42:81:77:53:bc:7f:23:b1:22:c2:a7:
                    f5:c3:de:09:7b:6c:0d:38:88:18:ea:2b:bd:ab:7d:
                    15:fb:55:7c:25:a7:3d:a2:19:70:1c:5e:ab:bd:5b:
                    9d:f3:45:84:80:6f:04:56:40:0a:cf:29:5e:01:93:
                    83:2b:12:49:06:90:92:b0:86:b2:df:bb:d0:9a:52:
                    df:e8:cd:07:2b:e1:34:18:4b:fe:a7:a1:8c:6a:d3:
                    17:ef:56:fa:07:52:66:4f:3a:35:e9:9f:33:c0:5b:
                    fc:fb:c7:10:e1:bf:a8:d3:5a:3c:fb:3b:32:c0:6a:
                    d4:39
                Exponent: 65537 (0x10001)
    Signature Algorithm: sha512WithRSAEncryption
         98:e0:43:3b:fe:ee:31:b4:46:3b:91:7a:64:38:b3:8c:07:86:
         a1:c0:5c:1a:d5:4e:a3:ff:f9:24:3f:de:88:1c:2f:e2:59:99:
         33:a7:2e:3c:66:e1:d2:88:40:3f:48:36:a5:a9:79:4f:bd:33:
         52:83:ce:e9:2a:4d:0c:73:f3:25:8e:b9:d1:1c:cf:02:e2:6a:
         25:08:24:ae:81:b7:eb:3e:61:35:83:cd:cc:5f:84:df:c6:c8:
         3f:3a:54:c8:c6:d6:f1:5d:45:e0:25:d9:81:c5:a3:26:39:ac:
         73:ae:a5:43:63:7b:f6:ed:de:4c:7f:d3:9e:06:3f:65:4e:17:
         80:f8:01:18:e8:03:78:89:86:7a:66:ec:d5:82:ed:36:9a:ae:
         80:a9:e7:3d:70:b7:a3:79:e5:1e:d6:14:78:99:45:b4:3e:19:
         6b:0a:0c:23:30:12:4e:4d:04:6b:49:e9:8f:32:50:83:16:35:
         08:94:34:98:e4:cd:ef:17:d3:55:cc:c0:86:7c:20:7a:25:3f:
         e2:89:fb:d7:4d:76:64:bf:38:0f:42:22:5a:84:78:4c:a9:61:
         54:f8:5f:29:16:3b:23:1f:ac:f8:2a:ab:a8:f7:06:89:ab:5c:
         9c:f8:4b:df:d7:69:34:d2:91:f8:f1:01:94:c8:49:ae:81:86:
         ab:b1:e5:90
-----BEGIN CERTIFICATE-----
MIIDgTCCAmkCAhACMA0GCSqGSIb3DQEBDQUAMIGbMQswCQYDVQQGEwJJTjEMMAoG
A1UECAwDR29hMRAwDgYDVQQHDAdCSVRTR29hMR8wHQYDVQQKDBZhdXRvbGFiLmJp
dHMtZ29hLmFjLmluMQ0wCwYDVQQLDARDU0lTMRAwDgYDVQQDDAdBdXRvbGFiMSow
KAYJKoZIhvcNAQkBFht0c3JrcEBnb2EuYml0cy1waWxhbmkuYWMuaW4wHhcNMTcw
NTI0MTkwOTU4WhcNMTgwNTI0MTkwOTU4WjBwMQswCQYDVQQGEwJJTjEMMAoGA1UE
CAwDR29hMR8wHQYDVQQKDBZhdXRvbGFiLmJpdHMtZ29hLmFjLmluMQ0wCwYDVQQL
DARDU0lTMSMwIQYDVQQDDBplbjEuYXV0b2xhYi5iaXRzLWdvYS5hYy5pbjCCASIw
DQYJKoZIhvcNAQEBBQADggEPADCCAQoCggEBAM9195pGqkvDZaSivdPQyL0FmgXt
OpRpfbPjDCGLPaiW28aRjQHJcYv1YiN33e8ztm8z9fkqjITjEliTzeweFlo6I+Hw
f4X4mNkzZwwiht0UuM3MaAK9wOI9MaVVujTm1iRIcLjDYHekEdzJdDn1XCZA1Elp
nbHrTbWHd+MjkEjr8Pygw3QRB54D90KBd1O8fyOxIsKn9cPeCXtsDTiIGOorvat9
FftVfCWnPaIZcBxeq71bnfNFhIBvBFZACs8pXgGTgysSSQaQkrCGst+70JpS3+jN
ByvhNBhL/qehjGrTF+9W+gdSZk86NemfM8Bb/PvHEOG/qNNaPPs7MsBq1DkCAwEA
ATANBgkqhkiG9w0BAQ0FAAOCAQEAmOBDO/7uMbRGO5F6ZDizjAeGocBcGtVOo//5
JD/eiBwv4lmZM6cuPGbh0ohAP0g2pal5T70zUoPO6SpNDHPzJY650RzPAuJqJQgk
roG36z5hNYPNzF+E38bIPzpUyMbW8V1F4CXZgcWjJjmsc66lQ2N79u3eTH/TngY/
ZU4XgPgBGOgDeImGembs1YLtNpqugKnnPXC3o3nlHtYUeJlFtD4ZawoMIzASTk0E
a0npjzJQgxY1CJQ0mOTN7xfTVczAhnwgeiU/4on71012ZL84D0IiWoR4TKlhVPhf
KRY7Ix+s+CqrqPcGiatcnPhL39dpNNKR+PEBlMhJroGGq7HlkA==
-----END CERTIFICATE-----
