Certificate:
    Data:
        Version: 1 (0x0)
        Serial Number: 4098 (0x1002)
    Signature Algorithm: sha512WithRSAEncryption
        Issuer: C=IN, ST=Goa, L=BITSGoa, O=autolab.bits-goa.ac.in, OU=CSIS, CN=Autolab/emailAddress=tsrkp@goa.bits-pilani.ac.in
        Validity
            Not Before: May 25 09:14:20 2017 GMT
            Not After : May 25 09:14:20 2018 GMT
        Subject: C=IN, ST=Goa, O=autolab.bits-goa.ac.in, OU=CSIS, CN=en1.autolab.bits-goa.ac.in
        Subject Public Key Info:
            Public Key Algorithm: rsaEncryption
                Public-Key: (2048 bit)
                Modulus:
                    00:c0:5a:3f:3c:a7:3c:b4:06:db:fe:c6:54:01:b7:
                    ea:1b:e2:2e:0c:a6:a6:04:a4:3a:9e:24:c1:73:ee:
                    b9:80:ca:82:3b:b8:be:17:5b:b1:e8:43:bf:87:db:
                    b4:bd:44:c1:0f:52:83:15:51:50:c9:de:3f:43:b9:
                    74:fe:79:a3:2f:9b:f5:a2:27:e2:d5:a3:70:e2:19:
                    75:e2:1c:32:10:d6:dd:1f:36:5f:3d:37:14:0a:70:
                    23:ba:5f:01:af:05:a0:03:66:ef:b8:93:fa:63:71:
                    da:e3:3a:c0:3e:b6:64:17:f6:cf:5d:28:35:b2:60:
                    43:24:51:6e:e9:3d:0f:c3:b6:a9:4f:a8:a2:d2:59:
                    64:2c:cc:55:a7:3c:c9:ae:78:46:61:9f:7c:2a:df:
                    1c:64:70:28:68:6b:0e:c5:f4:7c:6f:bf:e7:39:74:
                    28:30:98:79:e9:1e:46:97:80:3e:54:48:38:74:59:
                    9b:a1:30:72:e5:79:39:69:db:a8:8a:1d:f9:44:f7:
                    44:95:a4:b5:17:fd:3e:b3:8b:0e:80:84:41:98:4b:
                    3b:8e:8a:b6:22:0c:c9:d1:3b:78:4d:24:7b:2f:e4:
                    f5:b3:6a:0a:0a:0c:5f:8a:72:68:73:54:ef:77:c4:
                    2c:63:31:78:58:71:65:ef:5a:89:5e:c0:76:24:97:
                    a6:39
                Exponent: 65537 (0x10001)
    Signature Algorithm: sha512WithRSAEncryption
         1d:ac:03:6e:88:7d:05:6c:b7:6a:80:51:3b:a5:fe:7d:1a:3f:
         45:52:37:d9:b9:85:ce:6b:7a:62:7c:0d:63:85:4f:69:2f:2a:
         b0:e9:ac:d1:7f:be:64:26:d3:85:f4:c7:d7:b0:14:de:81:40:
         2c:ce:69:5a:4a:d4:df:1b:6d:7b:45:e3:0a:5d:98:81:47:41:
         7c:fe:98:51:0e:73:3b:0f:12:00:93:ea:04:1e:31:e9:f4:f7:
         a7:86:aa:09:c0:14:4b:56:05:5e:87:95:a9:56:01:2e:07:b0:
         2b:f6:20:06:49:8e:d8:49:07:0a:fa:d2:fd:98:ec:59:c5:b2:
         8f:24:fd:ca:85:e5:3f:92:45:b7:80:05:6b:50:d1:2c:34:14:
         e9:4f:78:ad:67:9b:52:72:42:1e:5f:a3:44:a2:9e:fa:46:14:
         09:71:02:2a:0f:de:ca:9a:a2:d6:a2:e0:17:9e:43:c5:83:de:
         85:8e:81:d4:fe:4b:42:e7:ea:56:fe:8e:72:13:53:da:65:6d:
         d5:ad:c3:37:f0:f7:ae:10:9d:a7:bd:2f:a8:c7:05:1b:e0:e2:
         9c:a5:d0:89:53:f8:e8:9c:af:64:36:9d:2f:a7:85:55:fe:72:
         76:22:a7:2d:13:3e:de:18:2f:7d:b9:52:18:4a:b1:81:bc:fd:
         db:1f:b9:80
-----BEGIN CERTIFICATE-----
MIIDgTCCAmkCAhACMA0GCSqGSIb3DQEBDQUAMIGbMQswCQYDVQQGEwJJTjEMMAoG
A1UECAwDR29hMRAwDgYDVQQHDAdCSVRTR29hMR8wHQYDVQQKDBZhdXRvbGFiLmJp
dHMtZ29hLmFjLmluMQ0wCwYDVQQLDARDU0lTMRAwDgYDVQQDDAdBdXRvbGFiMSow
KAYJKoZIhvcNAQkBFht0c3JrcEBnb2EuYml0cy1waWxhbmkuYWMuaW4wHhcNMTcw
NTI1MDkxNDIwWhcNMTgwNTI1MDkxNDIwWjBwMQswCQYDVQQGEwJJTjEMMAoGA1UE
CAwDR29hMR8wHQYDVQQKDBZhdXRvbGFiLmJpdHMtZ29hLmFjLmluMQ0wCwYDVQQL
DARDU0lTMSMwIQYDVQQDDBplbjEuYXV0b2xhYi5iaXRzLWdvYS5hYy5pbjCCASIw
DQYJKoZIhvcNAQEBBQADggEPADCCAQoCggEBAMBaPzynPLQG2/7GVAG36hviLgym
pgSkOp4kwXPuuYDKgju4vhdbsehDv4fbtL1EwQ9SgxVRUMneP0O5dP55oy+b9aIn
4tWjcOIZdeIcMhDW3R82Xz03FApwI7pfAa8FoANm77iT+mNx2uM6wD62ZBf2z10o
NbJgQyRRbuk9D8O2qU+ootJZZCzMVac8ya54RmGffCrfHGRwKGhrDsX0fG+/5zl0
KDCYeekeRpeAPlRIOHRZm6EwcuV5OWnbqIod+UT3RJWktRf9PrOLDoCEQZhLO46K
tiIMydE7eE0key/k9bNqCgoMX4pyaHNU73fELGMxeFhxZe9aiV7AdiSXpjkCAwEA
ATANBgkqhkiG9w0BAQ0FAAOCAQEAHawDboh9BWy3aoBRO6X+fRo/RVI32bmFzmt6
YnwNY4VPaS8qsOms0X++ZCbThfTH17AU3oFALM5pWkrU3xtte0XjCl2YgUdBfP6Y
UQ5zOw8SAJPqBB4x6fT3p4aqCcAUS1YFXoeVqVYBLgewK/YgBkmO2EkHCvrS/Zjs
WcWyjyT9yoXlP5JFt4AFa1DRLDQU6U94rWebUnJCHl+jRKKe+kYUCXECKg/eypqi
1qLgF55DxYPehY6B1P5LQufqVv6OchNT2mVt1a3DN/D3rhCdp70vqMcFG+DinKXQ
iVP46JyvZDadL6eFVf5ydiKnLRM+3hgvfblSGEqxgbz92x+5gA==
-----END CERTIFICATE-----
