Certificate:
    Data:
        Version: 1 (0x0)
        Serial Number: 4097 (0x1001)
    Signature Algorithm: sha512WithRSAEncryption
        Issuer: C=IN, ST=Goa, L=BITSGoa, O=autolab.bits-goa.ac.in, OU=CSIS, CN=Autolab/emailAddress=tsrkp@goa.bits-pilani.ac.in
        Validity
            Not Before: May 25 09:14:20 2017 GMT
            Not After : May 25 09:14:20 2018 GMT
        Subject: C=IN, ST=Goa, O=autolab.bits-goa.ac.in, OU=CSIS, CN=lb.autolab.bits-goa.ac.in
        Subject Public Key Info:
            Public Key Algorithm: rsaEncryption
                Public-Key: (2048 bit)
                Modulus:
                    00:cb:9b:f8:5d:96:0d:21:5d:0f:39:64:cf:2f:bf:
                    b7:53:05:2f:f5:5c:a0:41:75:5b:7e:c1:09:04:c9:
                    4c:52:d3:52:9a:e2:83:5d:ae:61:33:58:88:d9:86:
                    45:4c:38:25:97:df:e2:a2:f5:ed:72:92:c9:d9:c0:
                    52:00:9b:7c:59:24:8d:0a:25:a9:28:42:60:75:da:
                    1a:76:18:a8:b5:37:58:a0:e3:99:61:ba:b3:e1:d8:
                    18:35:9c:0b:d6:05:fc:55:51:09:95:f2:aa:bb:65:
                    4c:d5:20:4d:c0:23:0f:50:e1:96:4d:8a:3f:cf:b7:
                    b8:b3:1b:5f:68:68:64:e2:9a:39:96:21:cb:bd:c6:
                    7d:8f:24:a1:39:20:77:14:c6:82:08:95:50:e7:25:
                    77:b9:33:aa:e7:23:dd:3e:b4:1a:4a:be:3d:29:6c:
                    0a:a0:30:b5:b1:eb:ee:84:19:51:5a:56:8d:95:c5:
                    58:2f:9a:3e:8d:32:e0:96:59:d3:c0:17:f6:b3:98:
                    28:97:05:a5:57:80:b5:15:34:bf:19:72:4b:0b:dd:
                    de:67:57:46:a8:95:94:3e:85:f0:be:46:64:b5:c4:
                    57:d0:ee:5c:04:3f:49:c9:5e:e7:ad:2a:77:bd:eb:
                    ed:e9:8e:2d:4b:01:0f:14:fe:3d:7d:5f:92:bc:87:
                    92:9f
                Exponent: 65537 (0x10001)
    Signature Algorithm: sha512WithRSAEncryption
         57:fd:cb:83:28:b5:07:c9:9a:f6:4c:1f:db:25:f6:67:b3:35:
         cf:84:ae:67:39:6c:d8:fc:78:5a:77:1e:7a:df:71:46:97:4b:
         9c:40:71:49:a0:4c:46:38:e6:2b:7b:58:29:51:ce:42:44:1f:
         4e:45:b8:23:72:e0:cc:8c:88:11:c2:3b:6c:97:5a:7f:a6:8d:
         ba:93:31:09:f9:3c:b3:68:26:2d:fa:66:e2:52:63:26:a7:e1:
         d1:bd:cc:08:8d:c3:52:90:4d:a8:a7:3b:55:5d:50:54:1f:30:
         10:52:4f:94:d3:51:c1:ff:25:02:9c:e9:8a:6d:b6:c5:96:0f:
         ad:6c:31:ca:d9:a8:a1:5f:e7:e4:3d:82:4e:02:3e:17:04:d8:
         13:e6:cb:fc:93:e2:15:65:02:ba:5a:92:a3:78:8c:d7:27:b2:
         0e:eb:7a:ef:a6:7b:54:f0:9c:68:8d:62:8d:b3:09:6a:7b:75:
         de:f5:94:25:97:97:9c:cf:bc:e7:a1:11:7f:a1:eb:21:a8:28:
         9d:15:b8:20:43:37:ce:c1:ea:59:87:b4:0d:7d:37:37:8f:e0:
         80:c2:c9:bc:bb:8b:e0:6b:88:a7:cb:44:25:c8:ab:be:7e:93:
         94:f4:a6:00:d2:77:19:de:4a:d5:7c:b8:29:92:49:ac:78:0c:
         d7:96:28:f3
-----BEGIN CERTIFICATE-----
MIIDgDCCAmgCAhABMA0GCSqGSIb3DQEBDQUAMIGbMQswCQYDVQQGEwJJTjEMMAoG
A1UECAwDR29hMRAwDgYDVQQHDAdCSVRTR29hMR8wHQYDVQQKDBZhdXRvbGFiLmJp
dHMtZ29hLmFjLmluMQ0wCwYDVQQLDARDU0lTMRAwDgYDVQQDDAdBdXRvbGFiMSow
KAYJKoZIhvcNAQkBFht0c3JrcEBnb2EuYml0cy1waWxhbmkuYWMuaW4wHhcNMTcw
NTI1MDkxNDIwWhcNMTgwNTI1MDkxNDIwWjBvMQswCQYDVQQGEwJJTjEMMAoGA1UE
CAwDR29hMR8wHQYDVQQKDBZhdXRvbGFiLmJpdHMtZ29hLmFjLmluMQ0wCwYDVQQL
DARDU0lTMSIwIAYDVQQDDBlsYi5hdXRvbGFiLmJpdHMtZ29hLmFjLmluMIIBIjAN
BgkqhkiG9w0BAQEFAAOCAQ8AMIIBCgKCAQEAy5v4XZYNIV0POWTPL7+3UwUv9Vyg
QXVbfsEJBMlMUtNSmuKDXa5hM1iI2YZFTDgll9/iovXtcpLJ2cBSAJt8WSSNCiWp
KEJgddoadhiotTdYoOOZYbqz4dgYNZwL1gX8VVEJlfKqu2VM1SBNwCMPUOGWTYo/
z7e4sxtfaGhk4po5liHLvcZ9jyShOSB3FMaCCJVQ5yV3uTOq5yPdPrQaSr49KWwK
oDC1sevuhBlRWlaNlcVYL5o+jTLgllnTwBf2s5golwWlV4C1FTS/GXJLC93eZ1dG
qJWUPoXwvkZktcRX0O5cBD9JyV7nrSp3vevt6Y4tSwEPFP49fV+SvIeSnwIDAQAB
MA0GCSqGSIb3DQEBDQUAA4IBAQBX/cuDKLUHyZr2TB/bJfZnszXPhK5nOWzY/Hha
dx5633FGl0ucQHFJoExGOOYre1gpUc5CRB9ORbgjcuDMjIgRwjtsl1p/po26kzEJ
+TyzaCYt+mbiUmMmp+HRvcwIjcNSkE2opztVXVBUHzAQUk+U01HB/yUCnOmKbbbF
lg+tbDHK2aihX+fkPYJOAj4XBNgT5sv8k+IVZQK6WpKjeIzXJ7IO63rvpntU8Jxo
jWKNswlqe3Xe9ZQll5ecz7znoRF/oeshqCidFbggQzfOwepZh7QNfTc3j+CAwsm8
u4vga4iny0QlyKu+fpOU9KYA0ncZ3krVfLgpkkmseAzXlijz
-----END CERTIFICATE-----
