Certificate:
    Data:
        Version: 1 (0x0)
        Serial Number: 4097 (0x1001)
    Signature Algorithm: sha512WithRSAEncryption
        Issuer: C=IN, ST=Goa, L=BITSGoa, O=autolab.bits-goa.ac.in, OU=CSIS, CN=Autolab/emailAddress=tsrkp@goa.bits-pilani.ac.in
        Validity
            Not Before: May 24 19:09:58 2017 GMT
            Not After : May 24 19:09:58 2018 GMT
        Subject: C=IN, ST=Goa, O=autolab.bits-goa.ac.in, OU=CSIS, CN=lb.autolab.bits-goa.ac.in
        Subject Public Key Info:
            Public Key Algorithm: rsaEncryption
                Public-Key: (2048 bit)
                Modulus:
                    00:92:b8:f5:c0:04:30:03:ca:74:25:9c:85:92:ce:
                    62:37:cc:dc:03:ef:db:c0:ed:c1:b6:79:bb:13:96:
                    48:a8:b6:e3:ba:d1:21:cf:ad:af:7d:c3:6d:9c:df:
                    1e:aa:be:1a:5b:34:be:89:47:58:ce:df:16:da:fc:
                    62:21:b7:a0:89:90:b4:97:8c:d7:ac:28:0c:44:15:
                    c0:d1:de:e9:d4:74:18:34:3d:42:4b:87:be:44:be:
                    8a:3d:98:d9:ee:44:ad:3c:55:08:cf:1d:4f:37:4a:
                    61:99:a8:2f:26:48:3a:64:a8:56:e3:86:a3:ff:24:
                    9b:2c:23:f5:90:e8:45:3b:88:af:0c:11:3a:8b:0a:
                    1b:c4:d9:c4:23:4e:36:56:3f:b9:93:05:f6:7b:e4:
                    49:87:fa:44:4a:d0:2c:0a:1b:38:0e:ed:76:d5:a5:
                    c1:ab:23:08:ae:ca:26:e6:c7:1a:9c:cd:67:5d:b4:
                    51:89:54:93:0a:12:eb:36:a9:42:1f:4a:af:9e:b6:
                    8e:de:1f:5a:7c:a3:13:8a:a0:4d:ff:5b:f2:aa:b2:
                    07:af:b7:a8:ec:3e:53:df:41:11:51:72:3e:93:dd:
                    de:0c:32:bf:26:d3:09:46:36:6a:c9:2c:dc:75:e9:
                    e5:a1:3f:fd:42:c1:28:73:e0:4b:42:40:39:24:56:
                    c9:95
                Exponent: 65537 (0x10001)
    Signature Algorithm: sha512WithRSAEncryption
         04:1d:3e:77:ba:8b:07:19:72:07:ae:9b:6a:20:43:21:d7:5e:
         33:ca:c8:d2:f8:00:10:79:0c:b1:18:33:e8:fe:7d:42:69:74:
         c9:9a:6a:3c:b2:75:92:af:18:87:67:9a:0a:73:8c:7d:87:98:
         df:9a:8f:3b:8e:4a:18:2a:cd:59:ed:11:1d:87:bc:b3:87:d1:
         d4:a0:53:16:53:5f:45:84:f7:23:ef:e6:3f:20:26:36:5f:1f:
         22:c2:f8:78:d1:87:76:30:0e:99:53:21:e8:c1:4d:36:e8:4b:
         b0:5b:06:5f:4c:c5:e4:7b:a0:b9:a7:2c:47:63:e4:74:16:28:
         dc:8d:b4:04:0b:74:0d:80:aa:74:0f:01:e5:33:b5:f7:ff:91:
         d6:a1:66:7e:f1:5f:41:91:3c:76:6e:ce:4a:12:e0:a0:b3:f4:
         cd:65:81:8e:14:19:00:81:f1:98:2e:eb:ad:28:96:39:72:c9:
         6f:9e:a8:74:20:94:7b:28:48:3e:7a:a8:8d:45:56:40:64:79:
         d4:4f:01:d4:0e:48:66:36:ed:84:7b:c0:15:86:e5:5f:b5:9f:
         ac:51:2e:97:da:c0:f4:e3:b5:c0:30:1d:3d:63:68:f0:1a:6c:
         83:dd:83:9c:f6:e4:38:10:e7:7a:25:3d:e0:25:27:c8:6f:10:
         32:89:43:92
-----BEGIN CERTIFICATE-----
MIIDgDCCAmgCAhABMA0GCSqGSIb3DQEBDQUAMIGbMQswCQYDVQQGEwJJTjEMMAoG
A1UECAwDR29hMRAwDgYDVQQHDAdCSVRTR29hMR8wHQYDVQQKDBZhdXRvbGFiLmJp
dHMtZ29hLmFjLmluMQ0wCwYDVQQLDARDU0lTMRAwDgYDVQQDDAdBdXRvbGFiMSow
KAYJKoZIhvcNAQkBFht0c3JrcEBnb2EuYml0cy1waWxhbmkuYWMuaW4wHhcNMTcw
NTI0MTkwOTU4WhcNMTgwNTI0MTkwOTU4WjBvMQswCQYDVQQGEwJJTjEMMAoGA1UE
CAwDR29hMR8wHQYDVQQKDBZhdXRvbGFiLmJpdHMtZ29hLmFjLmluMQ0wCwYDVQQL
DARDU0lTMSIwIAYDVQQDDBlsYi5hdXRvbGFiLmJpdHMtZ29hLmFjLmluMIIBIjAN
BgkqhkiG9w0BAQEFAAOCAQ8AMIIBCgKCAQEAkrj1wAQwA8p0JZyFks5iN8zcA+/b
wO3Btnm7E5ZIqLbjutEhz62vfcNtnN8eqr4aWzS+iUdYzt8W2vxiIbegiZC0l4zX
rCgMRBXA0d7p1HQYND1CS4e+RL6KPZjZ7kStPFUIzx1PN0phmagvJkg6ZKhW44aj
/ySbLCP1kOhFO4ivDBE6iwobxNnEI042Vj+5kwX2e+RJh/pEStAsChs4Du121aXB
qyMIrsom5scanM1nXbRRiVSTChLrNqlCH0qvnraO3h9afKMTiqBN/1vyqrIHr7eo
7D5T30ERUXI+k93eDDK/JtMJRjZqySzcdenloT/9QsEoc+BLQkA5JFbJlQIDAQAB
MA0GCSqGSIb3DQEBDQUAA4IBAQAEHT53uosHGXIHrptqIEMh114zysjS+AAQeQyx
GDPo/n1CaXTJmmo8snWSrxiHZ5oKc4x9h5jfmo87jkoYKs1Z7REdh7yzh9HUoFMW
U19FhPcj7+Y/ICY2Xx8iwvh40Yd2MA6ZUyHowU026EuwWwZfTMXke6C5pyxHY+R0
FijcjbQEC3QNgKp0DwHlM7X3/5HWoWZ+8V9BkTx2bs5KEuCgs/TNZYGOFBkAgfGY
LuutKJY5cslvnqh0IJR7KEg+eqiNRVZAZHnUTwHUDkhmNu2Ee8AVhuVftZ+sUS6X
2sD047XAMB09Y2jwGmyD3YOc9uQ4EOd6JT3gJSfIbxAyiUOS
-----END CERTIFICATE-----
