Certificate:
    Data:
        Version: 1 (0x0)
        Serial Number: 4096 (0x1000)
    Signature Algorithm: sha512WithRSAEncryption
        Issuer: C=IN, ST=Goa, L=BITSGoa, O=autolab.bits-goa.ac.in, OU=CSIS, CN=Autolab/emailAddress=tsrkp@goa.bits-pilani.ac.in
        Validity
            Not Before: May 25 09:14:19 2017 GMT
            Not After : May 25 09:14:19 2018 GMT
        Subject: C=IN, ST=Goa, O=autolab.bits-goa.ac.in, OU=CSIS, CN=autolab.bits-goa.ac.in
        Subject Public Key Info:
            Public Key Algorithm: rsaEncryption
                Public-Key: (2048 bit)
                Modulus:
                    00:9f:e1:b2:17:ac:8a:83:e6:38:c8:87:01:b0:eb:
                    a8:b8:81:0f:7a:a4:ad:bf:10:7e:d7:86:d6:b5:72:
                    61:f2:85:e6:a0:3e:11:ae:c7:65:b3:d6:99:70:ed:
                    1b:32:7f:34:d7:fd:b4:62:d0:e6:46:87:b5:ec:fa:
                    7e:ef:9d:1b:d6:28:2f:19:ec:bc:28:84:15:ff:4d:
                    26:74:48:de:2f:43:d9:ab:45:16:60:aa:1a:f1:e2:
                    93:bb:44:74:e3:95:06:3d:55:2c:24:fb:1f:03:c0:
                    ac:f8:25:13:77:2c:b6:d1:fd:e4:be:a7:5a:1c:95:
                    59:4c:a7:0c:5c:12:d7:b3:fb:d6:bb:b0:49:2c:8c:
                    ba:75:a9:be:e1:97:95:83:cf:d2:a3:a8:ee:e1:d9:
                    7e:8f:93:92:ca:30:17:66:8f:52:1f:2e:55:64:e9:
                    96:02:9c:bb:0a:19:bc:02:c2:9e:b8:92:a0:93:b7:
                    a1:78:78:99:e2:a3:ae:59:33:0e:ad:e7:4d:af:d6:
                    56:b5:52:3b:ec:d1:bf:4e:7e:15:64:67:6f:89:2a:
                    39:f1:19:8d:e3:b3:57:9c:62:97:dc:e6:dd:c5:ac:
                    36:1e:f0:10:55:c5:3f:b8:70:6f:44:77:f3:5e:0b:
                    2d:96:3f:61:6b:e1:bb:e2:ba:2c:bb:06:90:a1:7e:
                    4d:d9
                Exponent: 65537 (0x10001)
    Signature Algorithm: sha512WithRSAEncryption
         a0:8b:1a:33:cd:91:6f:b6:11:3c:f5:a2:b6:2d:45:b0:d4:e5:
         a4:11:aa:7c:0a:c6:a1:15:b5:51:41:37:0f:76:34:94:93:5e:
         8f:b2:a7:c6:05:a0:b1:f3:05:af:8b:2e:dd:b4:3a:d9:71:35:
         4a:90:ff:9b:0b:b4:ce:21:dd:17:7d:d8:79:fd:c1:f4:97:7e:
         f6:c7:b2:72:6b:44:c0:8f:3e:4b:5e:e8:51:cd:1a:f5:43:b1:
         03:21:62:74:26:65:01:8a:bb:2b:b3:2b:f9:a1:ca:06:c9:3d:
         3e:3c:ad:4b:f4:ec:2a:7c:be:d9:86:c4:73:c0:ab:fe:82:e2:
         a2:25:1b:17:28:3a:25:d7:35:e1:72:a6:de:1a:7a:43:d7:7a:
         79:da:50:4a:a2:6b:b4:5a:a5:d5:66:b3:3e:de:f4:b5:b6:77:
         99:cb:59:ae:f6:dc:82:a9:71:6f:17:28:80:31:21:65:7c:f7:
         e0:88:e6:10:a6:e3:36:38:a7:43:d6:d8:df:0b:c8:bd:ea:09:
         5f:13:97:a2:94:2a:25:27:e6:c0:c1:dc:c1:d5:da:05:c9:1c:
         2e:fe:57:a6:62:08:ac:35:66:7b:e1:f2:4c:2b:af:fd:01:f1:
         05:07:40:66:7d:ff:03:d9:a1:bc:54:7f:95:94:ac:e7:44:2c:
         be:3e:20:f9
-----BEGIN CERTIFICATE-----
MIIDfTCCAmUCAhAAMA0GCSqGSIb3DQEBDQUAMIGbMQswCQYDVQQGEwJJTjEMMAoG
A1UECAwDR29hMRAwDgYDVQQHDAdCSVRTR29hMR8wHQYDVQQKDBZhdXRvbGFiLmJp
dHMtZ29hLmFjLmluMQ0wCwYDVQQLDARDU0lTMRAwDgYDVQQDDAdBdXRvbGFiMSow
KAYJKoZIhvcNAQkBFht0c3JrcEBnb2EuYml0cy1waWxhbmkuYWMuaW4wHhcNMTcw
NTI1MDkxNDE5WhcNMTgwNTI1MDkxNDE5WjBsMQswCQYDVQQGEwJJTjEMMAoGA1UE
CAwDR29hMR8wHQYDVQQKDBZhdXRvbGFiLmJpdHMtZ29hLmFjLmluMQ0wCwYDVQQL
DARDU0lTMR8wHQYDVQQDDBZhdXRvbGFiLmJpdHMtZ29hLmFjLmluMIIBIjANBgkq
hkiG9w0BAQEFAAOCAQ8AMIIBCgKCAQEAn+GyF6yKg+Y4yIcBsOuouIEPeqStvxB+
14bWtXJh8oXmoD4Rrsdls9aZcO0bMn801/20YtDmRoe17Pp+750b1igvGey8KIQV
/00mdEjeL0PZq0UWYKoa8eKTu0R045UGPVUsJPsfA8Cs+CUTdyy20f3kvqdaHJVZ
TKcMXBLXs/vWu7BJLIy6dam+4ZeVg8/So6ju4dl+j5OSyjAXZo9SHy5VZOmWApy7
Chm8AsKeuJKgk7eheHiZ4qOuWTMOredNr9ZWtVI77NG/Tn4VZGdviSo58RmN47NX
nGKX3Obdxaw2HvAQVcU/uHBvRHfzXgstlj9ha+G74rosuwaQoX5N2QIDAQABMA0G
CSqGSIb3DQEBDQUAA4IBAQCgixozzZFvthE89aK2LUWw1OWkEap8CsahFbVRQTcP
djSUk16PsqfGBaCx8wWviy7dtDrZcTVKkP+bC7TOId0Xfdh5/cH0l372x7Jya0TA
jz5LXuhRzRr1Q7EDIWJ0JmUBirsrsyv5ocoGyT0+PK1L9OwqfL7ZhsRzwKv+guKi
JRsXKDol1zXhcqbeGnpD13p52lBKomu0WqXVZrM+3vS1tneZy1mu9tyCqXFvFyiA
MSFlfPfgiOYQpuM2OKdD1tjfC8i96glfE5eilColJ+bAwdzB1doFyRwu/lemYgis
NWZ74fJMK6/9AfEFB0Bmff8D2aG8VH+VlKznRCy+PiD5
-----END CERTIFICATE-----
