Certificate:
    Data:
        Version: 1 (0x0)
        Serial Number: 4096 (0x1000)
    Signature Algorithm: sha512WithRSAEncryption
        Issuer: C=IN, ST=Goa, L=BITSGoa, O=autolab.bits-goa.ac.in, OU=CSIS, CN=Autolab/emailAddress=tsrkp@goa.bits-pilani.ac.in
        Validity
            Not Before: May 24 19:09:58 2017 GMT
            Not After : May 24 19:09:58 2018 GMT
        Subject: C=IN, ST=Goa, O=autolab.bits-goa.ac.in, OU=CSIS, CN=ms.autolab.bits-goa.ac.in
        Subject Public Key Info:
            Public Key Algorithm: rsaEncryption
                Public-Key: (2048 bit)
                Modulus:
                    00:bc:99:c2:b4:08:de:1d:f7:23:ca:25:39:0c:99:
                    0c:4f:8a:49:f0:e7:65:af:d6:d9:e7:0c:09:dd:57:
                    f3:5a:0f:2f:73:11:e0:e9:e8:51:41:56:28:f1:21:
                    d8:15:ee:b6:1a:4e:5c:a0:1e:4a:8f:08:df:d2:e0:
                    f2:2f:a9:bd:8f:dc:08:66:0b:d4:c9:9c:8a:15:d7:
                    e5:6f:c0:24:4f:8c:08:4d:86:42:2f:64:c5:6f:c7:
                    df:be:03:7f:49:ab:61:cb:08:bf:01:93:84:04:0e:
                    7a:a1:f1:06:c1:74:00:6f:82:39:81:40:ba:bb:e0:
                    0f:63:15:10:30:02:bc:15:d9:2f:a5:e8:ab:eb:8f:
                    95:d3:96:fd:b1:cd:ae:c0:5b:7d:ec:23:3c:76:c9:
                    63:ed:3e:77:5e:63:a9:55:24:bf:17:db:b2:ce:c2:
                    80:86:d9:50:12:6c:a5:5c:71:f2:0f:5d:e0:f4:71:
                    0c:a4:35:96:ec:7a:15:b0:02:62:7b:6f:c5:1a:75:
                    ea:16:02:d5:18:45:6e:e1:19:42:33:c9:5e:db:6b:
                    4d:cd:5c:f0:7e:4e:0b:86:7f:80:74:51:0c:3f:c1:
                    7f:5d:bd:af:d2:03:e1:4f:da:e1:d1:5d:36:f0:bc:
                    9f:0f:ff:43:02:63:f9:76:93:b0:f6:f7:7c:57:0a:
                    b2:99
                Exponent: 65537 (0x10001)
    Signature Algorithm: sha512WithRSAEncryption
         29:0e:fe:41:3e:bc:3b:ef:ad:a5:a4:78:73:91:1e:58:3d:21:
         bd:3d:bf:53:c7:d5:3b:40:25:b0:90:88:9e:30:55:db:40:06:
         40:24:6c:a8:5f:c6:48:74:d7:fc:df:e9:90:70:79:cf:8b:8b:
         12:08:18:79:14:b5:35:5b:0c:dc:63:d6:86:dc:8d:dc:72:9d:
         61:60:9a:c9:b9:72:2e:9b:72:74:31:b2:e2:70:a0:09:94:65:
         d4:f2:f9:78:71:09:e3:49:70:07:f8:43:b3:44:3a:d6:02:06:
         a4:1b:69:c5:b4:aa:fb:30:21:3c:9c:18:34:12:aa:74:cf:40:
         0a:03:dc:3a:5a:49:3e:74:c6:db:9a:2a:a4:96:34:b7:1c:ac:
         3f:45:3f:f3:4b:12:34:ed:02:89:4b:f1:eb:d4:92:37:26:03:
         db:a5:83:34:8d:03:fb:dc:39:65:a3:c8:fa:c7:46:0c:95:b2:
         51:b8:42:0d:46:83:47:6e:e8:94:fa:bc:43:de:16:6c:d0:8a:
         7c:28:b4:0a:35:29:1a:56:2b:14:3a:b1:45:78:66:c4:27:0e:
         4a:ce:ae:23:30:d0:67:88:3a:61:a0:8a:d4:c6:4e:15:f9:4d:
         aa:a9:1a:9b:d5:b3:19:53:b0:bc:c1:c7:be:98:5d:24:af:81:
         05:77:8f:56
-----BEGIN CERTIFICATE-----
MIIDgDCCAmgCAhAAMA0GCSqGSIb3DQEBDQUAMIGbMQswCQYDVQQGEwJJTjEMMAoG
A1UECAwDR29hMRAwDgYDVQQHDAdCSVRTR29hMR8wHQYDVQQKDBZhdXRvbGFiLmJp
dHMtZ29hLmFjLmluMQ0wCwYDVQQLDARDU0lTMRAwDgYDVQQDDAdBdXRvbGFiMSow
KAYJKoZIhvcNAQkBFht0c3JrcEBnb2EuYml0cy1waWxhbmkuYWMuaW4wHhcNMTcw
NTI0MTkwOTU4WhcNMTgwNTI0MTkwOTU4WjBvMQswCQYDVQQGEwJJTjEMMAoGA1UE
CAwDR29hMR8wHQYDVQQKDBZhdXRvbGFiLmJpdHMtZ29hLmFjLmluMQ0wCwYDVQQL
DARDU0lTMSIwIAYDVQQDDBltcy5hdXRvbGFiLmJpdHMtZ29hLmFjLmluMIIBIjAN
BgkqhkiG9w0BAQEFAAOCAQ8AMIIBCgKCAQEAvJnCtAjeHfcjyiU5DJkMT4pJ8Odl
r9bZ5wwJ3VfzWg8vcxHg6ehRQVYo8SHYFe62Gk5coB5Kjwjf0uDyL6m9j9wIZgvU
yZyKFdflb8AkT4wITYZCL2TFb8ffvgN/Sathywi/AZOEBA56ofEGwXQAb4I5gUC6
u+APYxUQMAK8Fdkvpeir64+V05b9sc2uwFt97CM8dslj7T53XmOpVSS/F9uyzsKA
htlQEmylXHHyD13g9HEMpDWW7HoVsAJie2/FGnXqFgLVGEVu4RlCM8le22tNzVzw
fk4Lhn+AdFEMP8F/Xb2v0gPhT9rh0V028LyfD/9DAmP5dpOw9vd8VwqymQIDAQAB
MA0GCSqGSIb3DQEBDQUAA4IBAQApDv5BPrw7762lpHhzkR5YPSG9Pb9Tx9U7QCWw
kIieMFXbQAZAJGyoX8ZIdNf83+mQcHnPi4sSCBh5FLU1WwzcY9aG3I3ccp1hYJrJ
uXIum3J0MbLicKAJlGXU8vl4cQnjSXAH+EOzRDrWAgakG2nFtKr7MCE8nBg0Eqp0
z0AKA9w6Wkk+dMbbmiqkljS3HKw/RT/zSxI07QKJS/Hr1JI3JgPbpYM0jQP73Dll
o8j6x0YMlbJRuEINRoNHbuiU+rxD3hZs0Ip8KLQKNSkaVisUOrFFeGbEJw5Kzq4j
MNBniDphoIrUxk4V+U2qqRqb1bMZU7C8wce+mF0kr4EFd49W
-----END CERTIFICATE-----
